GAS LISTING /tmp/ccxKWXS1.s 			page 1


   1              		.file	"spi.c"
   2              		.option nopic
   3              		.attribute arch, "rv32i2p0_m2p0_a2p0_c2p0"
   4              		.attribute unaligned_access, 0
   5              		.attribute stack_align, 16
   6              		.text
   7              	.Ltext0:
   8              		.cfi_sections	.debug_frame
   9              		.section	.text.spi1_slave_init,"ax",@progbits
  10              		.align	1
  11              		.globl	spi1_slave_init
  13              	spi1_slave_init:
  14              	.LFB2:
  15              		.file 1 "lib/SPI/src/spi.c"
   1:lib/SPI/src/spi.c **** #include "spi.h"
   2:lib/SPI/src/spi.c **** 
   3:lib/SPI/src/spi.c **** static void eclic_config(void);
   4:lib/SPI/src/spi.c **** static void rcu_config(void);
   5:lib/SPI/src/spi.c **** static void gpio_config(void);
   6:lib/SPI/src/spi.c **** static void spi_config(void);
   7:lib/SPI/src/spi.c **** 
   8:lib/SPI/src/spi.c **** /*!
   9:lib/SPI/src/spi.c ****     \brief      initialize SPI2 peripheral as slave with interrupt enabled
  10:lib/SPI/src/spi.c ****     \param      none
  11:lib/SPI/src/spi.c ****     \retval     none 
  12:lib/SPI/src/spi.c **** */
  13:lib/SPI/src/spi.c **** void spi1_slave_init(void){
  16              		.loc 1 13 27
  17              		.cfi_startproc
  14:lib/SPI/src/spi.c ****     eclic_config();
  18              		.loc 1 14 5
  19              	.LBB10:
  20              	.LBB11:
  15:lib/SPI/src/spi.c ****     rcu_config();
  16:lib/SPI/src/spi.c ****     gpio_config();
  17:lib/SPI/src/spi.c ****     spi_config();
  18:lib/SPI/src/spi.c **** }
  19:lib/SPI/src/spi.c **** 
  20:lib/SPI/src/spi.c **** /*!
  21:lib/SPI/src/spi.c ****     \brief      configure peripheral clocks
  22:lib/SPI/src/spi.c ****     \param      none
  23:lib/SPI/src/spi.c ****     \retval     none
  24:lib/SPI/src/spi.c **** */
  25:lib/SPI/src/spi.c **** static void rcu_config(void){
  26:lib/SPI/src/spi.c ****     // enable GPIO peripheral clock
  27:lib/SPI/src/spi.c ****     rcu_periph_clock_enable(RCU_GPIOB);
  28:lib/SPI/src/spi.c ****     // enable Alternate Function clock
  29:lib/SPI/src/spi.c ****     rcu_periph_clock_enable(RCU_AF);
  30:lib/SPI/src/spi.c ****     // enable SPI peipheral clock
  31:lib/SPI/src/spi.c ****     rcu_periph_clock_enable(RCU_SPI1);
  32:lib/SPI/src/spi.c **** }
  33:lib/SPI/src/spi.c **** 
  34:lib/SPI/src/spi.c **** /*!
  35:lib/SPI/src/spi.c ****     \brief      configure GPIO peripheral
  36:lib/SPI/src/spi.c ****     \param      none
  37:lib/SPI/src/spi.c ****     \retval     none
  38:lib/SPI/src/spi.c **** */
GAS LISTING /tmp/ccxKWXS1.s 			page 2


  39:lib/SPI/src/spi.c **** static void gpio_config(void){
  40:lib/SPI/src/spi.c ****     // configure SPI2 pins (B15: MOSI, B14: MISO, B13: SCK, B12: NSS) 
  41:lib/SPI/src/spi.c ****     gpio_init(GPIOB, GPIO_MODE_IN_FLOATING, GPIO_OSPEED_2MHZ, GPIO_PIN_13 );
  42:lib/SPI/src/spi.c ****     gpio_init(GPIOB, GPIO_MODE_IN_FLOATING, GPIO_OSPEED_2MHZ, GPIO_PIN_15); 
  43:lib/SPI/src/spi.c ****     gpio_init(GPIOB, GPIO_MODE_AF_PP, GPIO_OSPEED_2MHZ, GPIO_PIN_14);
  44:lib/SPI/src/spi.c **** }
  45:lib/SPI/src/spi.c **** 
  46:lib/SPI/src/spi.c **** /*!
  47:lib/SPI/src/spi.c ****     \brief      configure SPI peripheral in STU mode with interrupt enable 
  48:lib/SPI/src/spi.c ****     \param      none
  49:lib/SPI/src/spi.c ****     \retval     none
  50:lib/SPI/src/spi.c **** */
  51:lib/SPI/src/spi.c **** static void spi_config(void){
  52:lib/SPI/src/spi.c ****     /** Since the SPI2 is on the APB1 bus with maximum frequency of 54 MHz 
  53:lib/SPI/src/spi.c ****      * a prescalor of 64 gives the maximum SPI clock of around 844 KHz. */
  54:lib/SPI/src/spi.c **** 
  55:lib/SPI/src/spi.c ****     // decalere the parameter struct 
  56:lib/SPI/src/spi.c ****     spi_parameter_struct spi_init_struct;
  57:lib/SPI/src/spi.c **** 
  58:lib/SPI/src/spi.c ****     // reset SPI peripheral and current parameters
  59:lib/SPI/src/spi.c ****     spi_i2s_deinit(SPI1);
  60:lib/SPI/src/spi.c ****     spi_struct_para_init(&spi_init_struct);
  61:lib/SPI/src/spi.c **** 
  62:lib/SPI/src/spi.c ****     // configure SPI2 parameters for STU mode (manual fig 18.4)
  63:lib/SPI/src/spi.c ****     spi_init_struct.device_mode          = SPI_SLAVE;
  64:lib/SPI/src/spi.c **** //    spi_init_struct.trans_mode           = SPI_BIDIRECTIONAL_TRANSMIT;
  65:lib/SPI/src/spi.c ****     spi_init_struct.trans_mode           = SPI_TRANSMODE_FULLDUPLEX;
  66:lib/SPI/src/spi.c ****     spi_init_struct.frame_size           = SPI_FRAMESIZE_8BIT;
  67:lib/SPI/src/spi.c ****     spi_init_struct.nss                  = SPI_NSS_HARD;
  68:lib/SPI/src/spi.c ****     spi_init_struct.endian               = SPI_ENDIAN_MSB;
  69:lib/SPI/src/spi.c ****     spi_init_struct.clock_polarity_phase = SPI_CK_PL_HIGH_PH_2EDGE;
  70:lib/SPI/src/spi.c ****     spi_init_struct.prescale             = SPI_PSC_64;
  71:lib/SPI/src/spi.c ****     spi_init(SPI1, &spi_init_struct);
  72:lib/SPI/src/spi.c ****     
  73:lib/SPI/src/spi.c ****     // enable SPI 
  74:lib/SPI/src/spi.c ****     spi_enable(SPI1);
  75:lib/SPI/src/spi.c **** 
  76:lib/SPI/src/spi.c ****     // enable interrupts for SPI 
  77:lib/SPI/src/spi.c ****     spi_i2s_interrupt_enable(SPI1, SPI_I2S_INT_TBE);
  78:lib/SPI/src/spi.c **** }
  79:lib/SPI/src/spi.c **** 
  80:lib/SPI/src/spi.c **** /*!
  81:lib/SPI/src/spi.c ****     \brief      configure ECLIC interrupt handling scheme for SPI
  82:lib/SPI/src/spi.c ****     \param      none
  83:lib/SPI/src/spi.c ****     \retval      none
  84:lib/SPI/src/spi.c **** */
  85:lib/SPI/src/spi.c **** static void eclic_config(void){
  86:lib/SPI/src/spi.c ****     //eclic_global_interrupt_enable();
  87:lib/SPI/src/spi.c ****     eclic_priority_group_set(ECLIC_PRIGROUP_LEVEL3_PRIO1);
  21              		.loc 1 87 5
  22              	.LBE11:
  23              	.LBE10:
  13:lib/SPI/src/spi.c ****     eclic_config();
  24              		.loc 1 13 27 is_stmt 0
  25 0000 7971     		addi	sp,sp,-48
  26              	.LCFI0:
  27              		.cfi_def_cfa_offset 48
GAS LISTING /tmp/ccxKWXS1.s 			page 3


  28              	.LBB14:
  29              	.LBB12:
  30              		.loc 1 87 5
  31 0002 0D45     		li	a0,3
  32              	.LBE12:
  33              	.LBE14:
  13:lib/SPI/src/spi.c ****     eclic_config();
  34              		.loc 1 13 27
  35 0004 06D6     		sw	ra,44(sp)
  36 0006 22D4     		sw	s0,40(sp)
  37              		.cfi_offset 1, -4
  38              		.cfi_offset 8, -8
  39              	.LBB15:
  40              	.LBB13:
  41              		.loc 1 87 5
  42 0008 97000000 		call	eclic_priority_group_set
  42      E7800000 
  43              	.LVL0:
  88:lib/SPI/src/spi.c ****     eclic_irq_enable(SPI1_IRQn, 1, 0);
  44              		.loc 1 88 5 is_stmt 1
  45 0010 0146     		li	a2,0
  46 0012 8545     		li	a1,1
  47 0014 13057003 		li	a0,55
  48 0018 97000000 		call	eclic_irq_enable
  48      E7800000 
  49              	.LVL1:
  50              	.LBE13:
  51              	.LBE15:
  15:lib/SPI/src/spi.c ****     rcu_config();
  52              		.loc 1 15 5
  53              	.LBB16:
  54              	.LBB17:
  27:lib/SPI/src/spi.c ****     // enable Alternate Function clock
  55              		.loc 1 27 5
  56 0020 13053060 		li	a0,1539
  57 0024 97000000 		call	rcu_periph_clock_enable
  57      E7800000 
  58              	.LVL2:
  29:lib/SPI/src/spi.c ****     // enable SPI peipheral clock
  59              		.loc 1 29 5
  60 002c 13050060 		li	a0,1536
  61 0030 97000000 		call	rcu_periph_clock_enable
  61      E7800000 
  62              	.LVL3:
  31:lib/SPI/src/spi.c **** }
  63              		.loc 1 31 5
  64 0038 1305E070 		li	a0,1806
  65 003c 97000000 		call	rcu_periph_clock_enable
  65      E7800000 
  66              	.LVL4:
  67              	.LBE17:
  68              	.LBE16:
  16:lib/SPI/src/spi.c ****     spi_config();
  69              		.loc 1 16 5
  70              	.LBB18:
  71              	.LBB19:
  41:lib/SPI/src/spi.c ****     gpio_init(GPIOB, GPIO_MODE_IN_FLOATING, GPIO_OSPEED_2MHZ, GPIO_PIN_15); 
GAS LISTING /tmp/ccxKWXS1.s 			page 4


  72              		.loc 1 41 5
  73 0044 37140140 		li	s0,1073811456
  74 0048 130504C0 		addi	a0,s0,-1024
  75 004c 8966     		li	a3,8192
  76 004e 0946     		li	a2,2
  77 0050 9145     		li	a1,4
  78 0052 97000000 		call	gpio_init
  78      E7800000 
  79              	.LVL5:
  42:lib/SPI/src/spi.c ****     gpio_init(GPIOB, GPIO_MODE_AF_PP, GPIO_OSPEED_2MHZ, GPIO_PIN_14);
  80              		.loc 1 42 5
  81 005a 130504C0 		addi	a0,s0,-1024
  82 005e A166     		li	a3,32768
  83 0060 0946     		li	a2,2
  84 0062 9145     		li	a1,4
  85 0064 97000000 		call	gpio_init
  85      E7800000 
  86              	.LVL6:
  43:lib/SPI/src/spi.c **** }
  87              		.loc 1 43 5
  88 006c 9166     		li	a3,16384
  89 006e 0946     		li	a2,2
  90 0070 E145     		li	a1,24
  91 0072 130504C0 		addi	a0,s0,-1024
  92 0076 97000000 		call	gpio_init
  92      E7800000 
  93              	.LVL7:
  94              	.LBE19:
  95              	.LBE18:
  17:lib/SPI/src/spi.c **** }
  96              		.loc 1 17 5
  97              	.LBB20:
  98              	.LBB21:
  56:lib/SPI/src/spi.c **** 
  99              		.loc 1 56 5
  59:lib/SPI/src/spi.c ****     spi_struct_para_init(&spi_init_struct);
 100              		.loc 1 59 5
 101 007e 37440040 		li	s0,1073758208
 102 0082 13050480 		addi	a0,s0,-2048
 103 0086 97000000 		call	spi_i2s_deinit
 103      E7800000 
 104              	.LVL8:
  60:lib/SPI/src/spi.c **** 
 105              		.loc 1 60 5
 106 008e 4800     		addi	a0,sp,4
 107 0090 97000000 		call	spi_struct_para_init
 107      E7800000 
 108              	.LVL9:
  63:lib/SPI/src/spi.c **** //    spi_init_struct.trans_mode           = SPI_BIDIRECTIONAL_TRANSMIT;
 109              		.loc 1 63 5
  69:lib/SPI/src/spi.c ****     spi_init_struct.prescale             = SPI_PSC_64;
 110              		.loc 1 69 42 is_stmt 0
 111 0098 8D47     		li	a5,3
  71:lib/SPI/src/spi.c ****     
 112              		.loc 1 71 5
 113 009a 4C00     		addi	a1,sp,4
  69:lib/SPI/src/spi.c ****     spi_init_struct.prescale             = SPI_PSC_64;
GAS LISTING /tmp/ccxKWXS1.s 			page 5


 114              		.loc 1 69 42
 115 009c 3ECC     		sw	a5,24(sp)
  71:lib/SPI/src/spi.c ****     
 116              		.loc 1 71 5
 117 009e 13050480 		addi	a0,s0,-2048
  70:lib/SPI/src/spi.c ****     spi_init(SPI1, &spi_init_struct);
 118              		.loc 1 70 42
 119 00a2 93078002 		li	a5,40
 120 00a6 3ECE     		sw	a5,28(sp)
  63:lib/SPI/src/spi.c **** //    spi_init_struct.trans_mode           = SPI_BIDIRECTIONAL_TRANSMIT;
 121              		.loc 1 63 42
 122 00a8 02C2     		sw	zero,4(sp)
  65:lib/SPI/src/spi.c ****     spi_init_struct.frame_size           = SPI_FRAMESIZE_8BIT;
 123              		.loc 1 65 5 is_stmt 1
  65:lib/SPI/src/spi.c ****     spi_init_struct.frame_size           = SPI_FRAMESIZE_8BIT;
 124              		.loc 1 65 42 is_stmt 0
 125 00aa 02C4     		sw	zero,8(sp)
  66:lib/SPI/src/spi.c ****     spi_init_struct.nss                  = SPI_NSS_HARD;
 126              		.loc 1 66 5 is_stmt 1
  66:lib/SPI/src/spi.c ****     spi_init_struct.nss                  = SPI_NSS_HARD;
 127              		.loc 1 66 42 is_stmt 0
 128 00ac 02C6     		sw	zero,12(sp)
  67:lib/SPI/src/spi.c ****     spi_init_struct.endian               = SPI_ENDIAN_MSB;
 129              		.loc 1 67 5 is_stmt 1
  67:lib/SPI/src/spi.c ****     spi_init_struct.endian               = SPI_ENDIAN_MSB;
 130              		.loc 1 67 42 is_stmt 0
 131 00ae 02C8     		sw	zero,16(sp)
  68:lib/SPI/src/spi.c ****     spi_init_struct.clock_polarity_phase = SPI_CK_PL_HIGH_PH_2EDGE;
 132              		.loc 1 68 5 is_stmt 1
  68:lib/SPI/src/spi.c ****     spi_init_struct.clock_polarity_phase = SPI_CK_PL_HIGH_PH_2EDGE;
 133              		.loc 1 68 42 is_stmt 0
 134 00b0 02CA     		sw	zero,20(sp)
  69:lib/SPI/src/spi.c ****     spi_init_struct.prescale             = SPI_PSC_64;
 135              		.loc 1 69 5 is_stmt 1
  70:lib/SPI/src/spi.c ****     spi_init(SPI1, &spi_init_struct);
 136              		.loc 1 70 5
  71:lib/SPI/src/spi.c ****     
 137              		.loc 1 71 5
 138 00b2 97000000 		call	spi_init
 138      E7800000 
 139              	.LVL10:
  74:lib/SPI/src/spi.c **** 
 140              		.loc 1 74 5
 141 00ba 13050480 		addi	a0,s0,-2048
 142 00be 97000000 		call	spi_enable
 142      E7800000 
 143              	.LVL11:
  77:lib/SPI/src/spi.c **** }
 144              		.loc 1 77 5
 145 00c6 13050480 		addi	a0,s0,-2048
 146 00ca 8145     		li	a1,0
 147 00cc 97000000 		call	spi_i2s_interrupt_enable
 147      E7800000 
 148              	.LVL12:
 149              	.LBE21:
 150              	.LBE20:
  18:lib/SPI/src/spi.c **** 
GAS LISTING /tmp/ccxKWXS1.s 			page 6


 151              		.loc 1 18 1 is_stmt 0
 152 00d4 B250     		lw	ra,44(sp)
 153              		.cfi_restore 1
 154 00d6 2254     		lw	s0,40(sp)
 155              		.cfi_restore 8
 156 00d8 4561     		addi	sp,sp,48
 157              	.LCFI1:
 158              		.cfi_def_cfa_offset 0
 159 00da 8280     		jr	ra
 160              		.cfi_endproc
 161              	.LFE2:
 163              		.text
 164              	.Letext0:
 165              		.file 2 "/home/karzan/Documents/toolchain-gd32v-v202-linux/compiler/riscv64-unknown-elf/include/ma
 166              		.file 3 "/home/karzan/Documents/toolchain-gd32v-v202-linux/compiler/riscv64-unknown-elf/include/sy
 167              		.file 4 "../../firmware/GD32VF103_standard_peripheral/Include/gd32vf103_spi.h"
 168              		.file 5 "../../firmware/GD32VF103_standard_peripheral/system_gd32vf103.h"
 169              		.file 6 "lib/SPI/include/spi.h"
 170              		.file 7 "../../firmware/GD32VF103_standard_peripheral/Include/gd32vf103_eclic.h"
 171              		.file 8 "../../firmware/GD32VF103_standard_peripheral/Include/gd32vf103_rcu.h"
 172              		.file 9 "../../firmware/GD32VF103_standard_peripheral/Include/gd32vf103_gpio.h"
 173              		.file 10 "../../firmware/GD32VF103_standard_peripheral/gd32vf103.h"
GAS LISTING /tmp/ccxKWXS1.s 			page 7

