GAS LISTING /tmp/ccxKWXS1.s 			page 1


   1              		.file	"spi.c"
   2              		.option nopic
   3              		.attribute arch, "rv32i2p0_m2p0_a2p0_c2p0"
   4              		.attribute unaligned_access, 0
   5              		.attribute stack_align, 16
   6              		.text
   7              	.Ltext0:
   8              		.cfi_sections	.debug_frame
   9              		.section	.text.spi1_slave_init,"ax",@progbits
  10              		.align	1
  11              		.globl	spi1_slave_init
  13              	spi1_slave_init:
  14              	.LFB2:
  15              		.file 1 "lib/SPI/src/spi.c"
   1:lib/SPI/src/spi.c **** #include "spi.h"
   2:lib/SPI/src/spi.c **** 
   3:lib/SPI/src/spi.c **** static void eclic_config(void);
   4:lib/SPI/src/spi.c **** static void rcu_config(void);
   5:lib/SPI/src/spi.c **** static void gpio_config(void);
   6:lib/SPI/src/spi.c **** static void spi_config(void);
   7:lib/SPI/src/spi.c **** 
   8:lib/SPI/src/spi.c **** /*!
   9:lib/SPI/src/spi.c ****     \brief      initialize SPI2 peripheral as slave with interrupt enabled
  10:lib/SPI/src/spi.c ****     \param      none
  11:lib/SPI/src/spi.c ****     \retval     none 
  12:lib/SPI/src/spi.c **** */
  13:lib/SPI/src/spi.c **** void spi1_slave_init(void){
  16              		.loc 1 13 27
  17              		.cfi_startproc
  14:lib/SPI/src/spi.c ****     eclic_config();
  18              		.loc 1 14 5
  19              	.LBB10:
  20              	.LBB11:
  15:lib/SPI/src/spi.c ****     rcu_config();
  16:lib/SPI/src/spi.c ****     gpio_config();
  17:lib/SPI/src/spi.c ****     spi_config();
  18:lib/SPI/src/spi.c **** }
  19:lib/SPI/src/spi.c **** 
  20:lib/SPI/src/spi.c **** /*!
  21:lib/SPI/src/spi.c ****     \brief      configure peripheral clocks
  22:lib/SPI/src/spi.c ****     \param      none
  23:lib/SPI/src/spi.c ****     \retval     none
  24:lib/SPI/src/spi.c **** */
  25:lib/SPI/src/spi.c **** static void rcu_config(void){
  26:lib/SPI/src/spi.c ****     // enable GPIO peripheral clock
  27:lib/SPI/src/spi.c ****     rcu_periph_clock_enable(RCU_GPIOB);
  28:lib/SPI/src/spi.c ****     // enable Alternate Function clock
  29:lib/SPI/src/spi.c ****     rcu_periph_clock_enable(RCU_AF);
  30:lib/SPI/src/spi.c ****     // enable SPI peipheral clock
  31:lib/SPI/src/spi.c ****     rcu_periph_clock_enable(RCU_SPI1);
  32:lib/SPI/src/spi.c **** }
  33:lib/SPI/src/spi.c **** 
  34:lib/SPI/src/spi.c **** /*!
  35:lib/SPI/src/spi.c ****     \brief      configure GPIO peripheral
  36:lib/SPI/src/spi.c ****     \param      none
  37:lib/SPI/src/spi.c ****     \retval     none
  38:lib/SPI/src/spi.c **** */
GAS LISTING /tmp/ccxKWXS1.s 			page 2


  39:lib/SPI/src/spi.c **** static void gpio_config(void){
  40:lib/SPI/src/spi.c ****     // configure SPI2 pins (B15: MOSI, B14: MISO, B13: SCK, B12: NSS) 
  41:lib/SPI/src/spi.c ****     gpio_init(GPIOB, GPIO_MODE_IN_FLOATING, GPIO_OSPEED_2MHZ, GPIO_PIN_13 );
  42:lib/SPI/src/spi.c ****     gpio_init(GPIOB, GPIO_MODE_IN_FLOATING, GPIO_OSPEED_2MHZ, GPIO_PIN_15); 
  43:lib/SPI/src/spi.c ****     gpio_init(GPIOB, GPIO_MODE_AF_PP, GPIO_OSPEED_2MHZ, GPIO_PIN_14);
  44:lib/SPI/src/spi.c **** }
  45:lib/SPI/src/spi.c **** 
  46:lib/SPI/src/spi.c **** /*!
  47:lib/SPI/src/spi.c ****     \brief      configure SPI peripheral in STU mode with interrupt enable 
  48:lib/SPI/src/spi.c ****     \param      none
  49:lib/SPI/src/spi.c ****     \retval     none
  50:lib/SPI/src/spi.c **** */
  51:lib/SPI/src/spi.c **** static void spi_config(void){
  52:lib/SPI/src/spi.c ****     /** Since the SPI2 is on the APB1 bus with maximum frequency of 54 MHz 
  53:lib/SPI/src/spi.c ****      * a prescalor of 64 gives the maximum SPI clock of around 844 KHz. */
  54:lib/SPI/src/spi.c **** 
  55:lib/SPI/src/spi.c ****     // decalere the parameter struct 
  56:lib/SPI/src/spi.c ****     spi_parameter_struct spi_init_struct;
  57:lib/SPI/src/spi.c **** 
  58:lib/SPI/src/spi.c ****     // reset SPI peripheral and current parameters
  59:lib/SPI/src/spi.c ****     spi_i2s_deinit(SPI1);
  60:lib/SPI/src/spi.c ****     spi_struct_para_init(&spi_init_struct);
  61:lib/SPI/src/spi.c **** 
  62:lib/SPI/src/spi.c ****     // configure SPI2 parameters for STU mode (manual fig 18.4)
  63:lib/SPI/src/spi.c ****     spi_init_struct.device_mode          = SPI_SLAVE;
  64:lib/SPI/src/spi.c **** //    spi_init_struct.trans_mode           = SPI_BIDIRECTIONAL_TRANSMIT;
  65:lib/SPI/src/spi.c ****     spi_init_struct.trans_mode           = SPI_TRANSMODE_FULLDUPLEX;
  66:lib/SPI/src/spi.c ****     spi_init_struct.frame_size           = SPI_FRAMESIZE_8BIT;
  67:lib/SPI/src/spi.c ****     spi_init_struct.nss                  = SPI_NSS_HARD;
  68:lib/SPI/src/spi.c ****     spi_init_struct.endian               = SPI_ENDIAN_MSB;
  69:lib/SPI/src/spi.c ****     spi_init_struct.clock_polarity_phase = SPI_CK_PL_HIGH_PH_2EDGE;
  70:lib/SPI/src/spi.c ****     spi_init_struct.prescale             = SPI_PSC_64;
  71:lib/SPI/src/spi.c ****     spi_init(SPI1, &spi_init_struct);
  72:lib/SPI/src/spi.c ****     
  73:lib/SPI/src/spi.c ****     // enable SPI 
  74:lib/SPI/src/spi.c ****     spi_enable(SPI1);
  75:lib/SPI/src/spi.c **** 
  76:lib/SPI/src/spi.c ****     // enable interrupts for SPI 
  77:lib/SPI/src/spi.c ****     spi_i2s_interrupt_enable(SPI1, SPI_I2S_INT_TBE);
  78:lib/SPI/src/spi.c **** }
  79:lib/SPI/src/spi.c **** 
  80:lib/SPI/src/spi.c **** /*!
  81:lib/SPI/src/spi.c ****     \brief      configure ECLIC interrupt handling scheme for SPI
  82:lib/SPI/src/spi.c ****     \param      none
  83:lib/SPI/src/spi.c ****     \retval      none
  84:lib/SPI/src/spi.c **** */
  85:lib/SPI/src/spi.c **** static void eclic_config(void){
  86:lib/SPI/src/spi.c ****     //eclic_global_interrupt_enable();
  87:lib/SPI/src/spi.c ****     eclic_priority_group_set(ECLIC_PRIGROUP_LEVEL3_PRIO1);
  21              		.loc 1 87 5
  22              	.LBE11:
  23              	.LBE10:
  13:lib/SPI/src/spi.c ****     eclic_config();
  24              		.loc 1 13 27 is_stmt 0
  25 0000 7971     		addi	sp,sp,-48
  26              	.LCFI0:
  27              		.cfi_def_cfa_offset 48
GAS LISTING /tmp/ccxKWXS1.s 			page 3


  28              	.LBB14:
  29              	.LBB12:
  30              		.loc 1 87 5
  31 0002 0D45     		li	a0,3
  32              	.LBE12:
  33              	.LBE14:
  13:lib/SPI/src/spi.c ****     eclic_config();
  34              		.loc 1 13 27
  35 0004 06D6     		sw	ra,44(sp)
  36 0006 22D4     		sw	s0,40(sp)
  37              		.cfi_offset 1, -4
  38              		.cfi_offset 8, -8
  39              	.LBB15:
  40              	.LBB13:
  41              		.loc 1 87 5
  42 0008 97000000 		call	eclic_priority_group_set
  42      E7800000 
  43              	.LVL0:
  88:lib/SPI/src/spi.c ****     eclic_irq_enable(SPI1_IRQn, 1, 0);
  44              		.loc 1 88 5 is_stmt 1
  45 0010 0146     		li	a2,0
  46 0012 8545     		li	a1,1
  47 0014 13057003 		li	a0,55
  48 0018 97000000 		call	eclic_irq_enable
  48      E7800000 
  49              	.LVL1:
  50              	.LBE13:
  51              	.LBE15:
  15:lib/SPI/src/spi.c ****     rcu_config();
  52              		.loc 1 15 5
  53              	.LBB16:
  54              	.LBB17:
  27:lib/SPI/src/spi.c ****     // enable Alternate Function clock
  55              		.loc 1 27 5
  56 0020 13053060 		li	a0,1539
  57 0024 97000000 		call	rcu_periph_clock_enable
  57      E7800000 
  58              	.LVL2:
  29:lib/SPI/src/spi.c ****     // enable SPI peipheral clock
  59              		.loc 1 29 5
  60 002c 13050060 		li	a0,1536
  61 0030 97000000 		call	rcu_periph_clock_enable
  61      E7800000 
  62              	.LVL3:
  31:lib/SPI/src/spi.c **** }
  63              		.loc 1 31 5
  64 0038 1305E070 		li	a0,1806
  65 003c 97000000 		call	rcu_periph_clock_enable
  65      E7800000 
  66              	.LVL4:
  67              	.LBE17:
  68              	.LBE16:
  16:lib/SPI/src/spi.c ****     spi_config();
  69              		.loc 1 16 5
  70              	.LBB18:
  71              	.LBB19:
  41:lib/SPI/src/spi.c ****     gpio_init(GPIOB, GPIO_MODE_IN_FLOATING, GPIO_OSPEED_2MHZ, GPIO_PIN_15); 
GAS LISTING /tmp/ccxKWXS1.s 			page 4


  72              		.loc 1 41 5
  73 0044 37140140 		li	s0,1073811456
  74 0048 130504C0 		addi	a0,s0,-1024
  75 004c 8966     		li	a3,8192
  76 004e 0946     		li	a2,2
  77 0050 9145     		li	a1,4
  78 0052 97000000 		call	gpio_init
  78      E7800000 
  79              	.LVL5:
  42:lib/SPI/src/spi.c ****     gpio_init(GPIOB, GPIO_MODE_AF_PP, GPIO_OSPEED_2MHZ, GPIO_PIN_14);
  80              		.loc 1 42 5
  81 005a 130504C0 		addi	a0,s0,-1024
  82 005e A166     		li	a3,32768
  83 0060 0946     		li	a2,2
  84 0062 9145     		li	a1,4
  85 0064 97000000 		call	gpio_init
  85      E7800000 
  86              	.LVL6:
  43:lib/SPI/src/spi.c **** }
  87              		.loc 1 43 5
  88 006c 9166     		li	a3,16384
  89 006e 0946     		li	a2,2
  90 0070 E145     		li	a1,24
  91 0072 130504C0 		addi	a0,s0,-1024
  92 0076 97000000 		call	gpio_init
  92      E7800000 
  93              	.LVL7:
  94              	.LBE19:
  95              	.LBE18:
  17:lib/SPI/src/spi.c **** }
  96              		.loc 1 17 5
  97              	.LBB20:
  98              	.LBB21:
  56:lib/SPI/src/spi.c **** 
  99              		.loc 1 56 5
  59:lib/SPI/src/spi.c ****     spi_struct_para_init(&spi_init_struct);
 100              		.loc 1 59 5
 101 007e 37440040 		li	s0,1073758208
 102 0082 13050480 		addi	a0,s0,-2048
 103 0086 97000000 		call	spi_i2s_deinit
 103      E7800000 
 104              	.LVL8:
  60:lib/SPI/src/spi.c **** 
 105              		.loc 1 60 5
 106 008e 4800     		addi	a0,sp,4
 107 0090 97000000 		call	spi_struct_para_init
 107      E7800000 
 108              	.LVL9:
  63:lib/SPI/src/spi.c **** //    spi_init_struct.trans_mode           = SPI_BIDIRECTIONAL_TRANSMIT;
 109              		.loc 1 63 5
  69:lib/SPI/src/spi.c ****     spi_init_struct.prescale             = SPI_PSC_64;
 110              		.loc 1 69 42 is_stmt 0
 111 0098 8D47     		li	a5,3
  71:lib/SPI/src/spi.c ****     
 112              		.loc 1 71 5
 113 009a 4C00     		addi	a1,sp,4
  69:lib/SPI/src/spi.c ****     spi_init_struct.prescale             = SPI_PSC_64;
GAS LISTING /tmp/ccxKWXS1.s 			page 5


 114              		.loc 1 69 42
 115 009c 3ECC     		sw	a5,24(sp)
  71:lib/SPI/src/spi.c ****     
 116              		.loc 1 71 5
 117 009e 13050480 		addi	a0,s0,-2048
  70:lib/SPI/src/spi.c ****     spi_init(SPI1, &spi_init_struct);
 118              		.loc 1 70 42
 119 00a2 93078002 		li	a5,40
 120 00a6 3ECE     		sw	a5,28(sp)
  63:lib/SPI/src/spi.c **** //    spi_init_struct.trans_mode           = SPI_BIDIRECTIONAL_TRANSMIT;
 121              		.loc 1 63 42
 122 00a8 02C2     		sw	zero,4(sp)
  65:lib/SPI/src/spi.c ****     spi_init_struct.frame_size           = SPI_FRAMESIZE_8BIT;
 123              		.loc 1 65 5 is_stmt 1
  65:lib/SPI/src/spi.c ****     spi_init_struct.frame_size           = SPI_FRAMESIZE_8BIT;
 124              		.loc 1 65 42 is_stmt 0
 125 00aa 02C4     		sw	zero,8(sp)
  66:lib/SPI/src/spi.c ****     spi_init_struct.nss                  = SPI_NSS_HARD;
 126              		.loc 1 66 5 is_stmt 1
  66:lib/SPI/src/spi.c ****     spi_init_struct.nss                  = SPI_NSS_HARD;
 127              		.loc 1 66 42 is_stmt 0
 128 00ac 02C6     		sw	zero,12(sp)
  67:lib/SPI/src/spi.c ****     spi_init_struct.endian               = SPI_ENDIAN_MSB;
 129              		.loc 1 67 5 is_stmt 1
  67:lib/SPI/src/spi.c ****     spi_init_struct.endian               = SPI_ENDIAN_MSB;
 130              		.loc 1 67 42 is_stmt 0
 131 00ae 02C8     		sw	zero,16(sp)
  68:lib/SPI/src/spi.c ****     spi_init_struct.clock_polarity_phase = SPI_CK_PL_HIGH_PH_2EDGE;
 132              		.loc 1 68 5 is_stmt 1
  68:lib/SPI/src/spi.c ****     spi_init_struct.clock_polarity_phase = SPI_CK_PL_HIGH_PH_2EDGE;
 133              		.loc 1 68 42 is_stmt 0
 134 00b0 02CA     		sw	zero,20(sp)
  69:lib/SPI/src/spi.c ****     spi_init_struct.prescale             = SPI_PSC_64;
 135              		.loc 1 69 5 is_stmt 1
  70:lib/SPI/src/spi.c ****     spi_init(SPI1, &spi_init_struct);
 136              		.loc 1 70 5
  71:lib/SPI/src/spi.c ****     
 137              		.loc 1 71 5
 138 00b2 97000000 		call	spi_init
 138      E7800000 
 139              	.LVL10:
  74:lib/SPI/src/spi.c **** 
 140              		.loc 1 74 5
 141 00ba 13050480 		addi	a0,s0,-2048
 142 00be 97000000 		call	spi_enable
 142      E7800000 
 143              	.LVL11:
  77:lib/SPI/src/spi.c **** }
 144              		.loc 1 77 5
 145 00c6 13050480 		addi	a0,s0,-2048
 146 00ca 8145     		li	a1,0
 147 00cc 97000000 		call	spi_i2s_interrupt_enable
 147      E7800000 
 148              	.LVL12:
 149              	.LBE21:
 150              	.LBE20:
  18:lib/SPI/src/spi.c **** 
GAS LISTING /tmp/ccxKWXS1.s 			page 6


 151              		.loc 1 18 1 is_stmt 0
 152 00d4 B250     		lw	ra,44(sp)
 153              		.cfi_restore 1
 154 00d6 2254     		lw	s0,40(sp)
 155              		.cfi_restore 8
 156 00d8 4561     		addi	sp,sp,48
 157              	.LCFI1:
 158              		.cfi_def_cfa_offset 0
 159 00da 8280     		jr	ra
 160              		.cfi_endproc
 161              	.LFE2:
 163              		.text
 164              	.Letext0:
 165              		.file 2 "/home/karzan/Documents/toolchain-gd32v-v202-linux/compiler/riscv64-unknown-elf/include/ma
 166              		.file 3 "/home/karzan/Documents/toolchain-gd32v-v202-linux/compiler/riscv64-unknown-elf/include/sy
 167              		.file 4 "../../firmware/GD32VF103_standard_peripheral/Include/gd32vf103_spi.h"
 168              		.file 5 "../../firmware/GD32VF103_standard_peripheral/system_gd32vf103.h"
 169              		.file 6 "lib/SPI/include/spi.h"
 170              		.file 7 "../../firmware/GD32VF103_standard_peripheral/Include/gd32vf103_eclic.h"
 171              		.file 8 "../../firmware/GD32VF103_standard_peripheral/Include/gd32vf103_rcu.h"
 172              		.file 9 "../../firmware/GD32VF103_standard_peripheral/Include/gd32vf103_gpio.h"
 173              		.file 10 "../../firmware/GD32VF103_standard_peripheral/gd32vf103.h"
GAS LISTING /tmp/ccxKWXS1.s 			page 7


DEFINED SYMBOLS
                            *ABS*:0000000000000000 spi.c
     /tmp/ccxKWXS1.s:13     .text.spi1_slave_init:0000000000000000 spi1_slave_init
     /tmp/ccxKWXS1.s:17     .text.spi1_slave_init:0000000000000000 .L0 
     /tmp/ccxKWXS1.s:18     .text.spi1_slave_init:0000000000000000 .L0 
     /tmp/ccxKWXS1.s:21     .text.spi1_slave_init:0000000000000000 .L0 
     /tmp/ccxKWXS1.s:24     .text.spi1_slave_init:0000000000000000 .L0 
     /tmp/ccxKWXS1.s:25     .text.spi1_slave_init:0000000000000000 .L0 
     /tmp/ccxKWXS1.s:27     .text.spi1_slave_init:0000000000000002 .L0 
     /tmp/ccxKWXS1.s:31     .text.spi1_slave_init:0000000000000002 .L0 
     /tmp/ccxKWXS1.s:35     .text.spi1_slave_init:0000000000000004 .L0 
     /tmp/ccxKWXS1.s:37     .text.spi1_slave_init:0000000000000008 .L0 
     /tmp/ccxKWXS1.s:38     .text.spi1_slave_init:0000000000000008 .L0 
     /tmp/ccxKWXS1.s:42     .text.spi1_slave_init:0000000000000008 .L0 
     /tmp/ccxKWXS1.s:45     .text.spi1_slave_init:0000000000000010 .L0 
     /tmp/ccxKWXS1.s:55     .text.spi1_slave_init:0000000000000020 .L0 
     /tmp/ccxKWXS1.s:56     .text.spi1_slave_init:0000000000000020 .L0 
     /tmp/ccxKWXS1.s:60     .text.spi1_slave_init:000000000000002c .L0 
     /tmp/ccxKWXS1.s:64     .text.spi1_slave_init:0000000000000038 .L0 
     /tmp/ccxKWXS1.s:72     .text.spi1_slave_init:0000000000000044 .L0 
     /tmp/ccxKWXS1.s:73     .text.spi1_slave_init:0000000000000044 .L0 
     /tmp/ccxKWXS1.s:81     .text.spi1_slave_init:000000000000005a .L0 
     /tmp/ccxKWXS1.s:88     .text.spi1_slave_init:000000000000006c .L0 
     /tmp/ccxKWXS1.s:99     .text.spi1_slave_init:000000000000007e .L0 
     /tmp/ccxKWXS1.s:100    .text.spi1_slave_init:000000000000007e .L0 
     /tmp/ccxKWXS1.s:101    .text.spi1_slave_init:000000000000007e .L0 
     /tmp/ccxKWXS1.s:106    .text.spi1_slave_init:000000000000008e .L0 
     /tmp/ccxKWXS1.s:110    .text.spi1_slave_init:0000000000000098 .L0 
     /tmp/ccxKWXS1.s:111    .text.spi1_slave_init:0000000000000098 .L0 
     /tmp/ccxKWXS1.s:113    .text.spi1_slave_init:000000000000009a .L0 
     /tmp/ccxKWXS1.s:115    .text.spi1_slave_init:000000000000009c .L0 
     /tmp/ccxKWXS1.s:117    .text.spi1_slave_init:000000000000009e .L0 
     /tmp/ccxKWXS1.s:119    .text.spi1_slave_init:00000000000000a2 .L0 
     /tmp/ccxKWXS1.s:122    .text.spi1_slave_init:00000000000000a8 .L0 
     /tmp/ccxKWXS1.s:124    .text.spi1_slave_init:00000000000000aa .L0 
     /tmp/ccxKWXS1.s:125    .text.spi1_slave_init:00000000000000aa .L0 
     /tmp/ccxKWXS1.s:127    .text.spi1_slave_init:00000000000000ac .L0 
     /tmp/ccxKWXS1.s:128    .text.spi1_slave_init:00000000000000ac .L0 
     /tmp/ccxKWXS1.s:130    .text.spi1_slave_init:00000000000000ae .L0 
     /tmp/ccxKWXS1.s:131    .text.spi1_slave_init:00000000000000ae .L0 
     /tmp/ccxKWXS1.s:133    .text.spi1_slave_init:00000000000000b0 .L0 
     /tmp/ccxKWXS1.s:134    .text.spi1_slave_init:00000000000000b0 .L0 
     /tmp/ccxKWXS1.s:136    .text.spi1_slave_init:00000000000000b2 .L0 
     /tmp/ccxKWXS1.s:137    .text.spi1_slave_init:00000000000000b2 .L0 
     /tmp/ccxKWXS1.s:138    .text.spi1_slave_init:00000000000000b2 .L0 
     /tmp/ccxKWXS1.s:141    .text.spi1_slave_init:00000000000000ba .L0 
     /tmp/ccxKWXS1.s:145    .text.spi1_slave_init:00000000000000c6 .L0 
     /tmp/ccxKWXS1.s:152    .text.spi1_slave_init:00000000000000d4 .L0 
     /tmp/ccxKWXS1.s:153    .text.spi1_slave_init:00000000000000d6 .L0 
     /tmp/ccxKWXS1.s:155    .text.spi1_slave_init:00000000000000d8 .L0 
     /tmp/ccxKWXS1.s:158    .text.spi1_slave_init:00000000000000da .L0 
     /tmp/ccxKWXS1.s:160    .text.spi1_slave_init:00000000000000dc .L0 
     /tmp/ccxKWXS1.s:163    .text.spi1_slave_init:00000000000000dc .L0 
                     .debug_frame:0000000000000000 .L0 
     /tmp/ccxKWXS1.s:1064   .debug_abbrev:0000000000000000 .Ldebug_abbrev0
     /tmp/ccxKWXS1.s:1727   .debug_str:000000000000050e .LASF139
     /tmp/ccxKWXS1.s:1543   .debug_str:000000000000005d .LASF140
GAS LISTING /tmp/ccxKWXS1.s 			page 8


     /tmp/ccxKWXS1.s:1643   .debug_str:00000000000002d4 .LASF141
     /tmp/ccxKWXS1.s:1515   .debug_ranges:0000000000000000 .Ldebug_ranges0
     /tmp/ccxKWXS1.s:1529   .debug_line:0000000000000000 .Ldebug_line0
     /tmp/ccxKWXS1.s:1721   .debug_str:00000000000004e9 .LASF142
     /tmp/ccxKWXS1.s:1723   .debug_str:00000000000004ee .LASF0
     /tmp/ccxKWXS1.s:1741   .debug_str:00000000000005dd .LASF1
     /tmp/ccxKWXS1.s:1687   .debug_str:000000000000040d .LASF2
     /tmp/ccxKWXS1.s:1747   .debug_str:0000000000000609 .LASF3
     /tmp/ccxKWXS1.s:1703   .debug_str:000000000000046d .LASF4
     /tmp/ccxKWXS1.s:1809   .debug_str:00000000000007aa .LASF5
     /tmp/ccxKWXS1.s:1573   .debug_str:0000000000000117 .LASF6
     /tmp/ccxKWXS1.s:1817   .debug_str:00000000000007f2 .LASF7
     /tmp/ccxKWXS1.s:1731   .debug_str:00000000000005a1 .LASF8
     /tmp/ccxKWXS1.s:1605   .debug_str:00000000000001f9 .LASF9
     /tmp/ccxKWXS1.s:1685   .debug_str:0000000000000400 .LASF10
     /tmp/ccxKWXS1.s:1561   .debug_str:00000000000000d8 .LASF11
     /tmp/ccxKWXS1.s:1755   .debug_str:000000000000063e .LASF12
     /tmp/ccxKWXS1.s:1627   .debug_str:000000000000026d .LASF13
     /tmp/ccxKWXS1.s:1807   .debug_str:000000000000079f .LASF14
     /tmp/ccxKWXS1.s:1695   .debug_str:0000000000000441 .LASF15
     /tmp/ccxKWXS1.s:1803   .debug_str:0000000000000779 .LASF16
     /tmp/ccxKWXS1.s:1749   .debug_str:0000000000000617 .LASF17
     /tmp/ccxKWXS1.s:1557   .debug_str:00000000000000b9 .LASF18
     /tmp/ccxKWXS1.s:1745   .debug_str:00000000000005f6 .LASF19
     /tmp/ccxKWXS1.s:1591   .debug_str:0000000000000198 .LASF20
     /tmp/ccxKWXS1.s:1797   .debug_str:0000000000000750 .LASF21
     /tmp/ccxKWXS1.s:1683   .debug_str:00000000000003ed .LASF22
     /tmp/ccxKWXS1.s:1551   .debug_str:0000000000000099 .LASF23
     /tmp/ccxKWXS1.s:1611   .debug_str:0000000000000219 .LASF24
     /tmp/ccxKWXS1.s:1633   .debug_str:0000000000000298 .LASF25
     /tmp/ccxKWXS1.s:1537   .debug_str:000000000000003d .LASF26
     /tmp/ccxKWXS1.s:1769   .debug_str:00000000000006a1 .LASF27
     /tmp/ccxKWXS1.s:1761   .debug_str:0000000000000668 .LASF28
     /tmp/ccxKWXS1.s:1787   .debug_str:0000000000000719 .LASF29
     /tmp/ccxKWXS1.s:1705   .debug_str:000000000000047c .LASF30
     /tmp/ccxKWXS1.s:1811   .debug_str:00000000000007b5 .LASF31
     /tmp/ccxKWXS1.s:1533   .debug_str:0000000000000010 .LASF32
     /tmp/ccxKWXS1.s:1559   .debug_str:00000000000000cc .LASF33
     /tmp/ccxKWXS1.s:1743   .debug_str:00000000000005ea .LASF34
     /tmp/ccxKWXS1.s:1625   .debug_str:0000000000000261 .LASF35
     /tmp/ccxKWXS1.s:1775   .debug_str:00000000000006cc .LASF36
     /tmp/ccxKWXS1.s:1657   .debug_str:000000000000035f .LASF37
     /tmp/ccxKWXS1.s:1711   .debug_str:00000000000004a8 .LASF38
     /tmp/ccxKWXS1.s:1757   .debug_str:0000000000000649 .LASF39
     /tmp/ccxKWXS1.s:1707   .debug_str:000000000000048b .LASF40
     /tmp/ccxKWXS1.s:1581   .debug_str:000000000000013f .LASF41
     /tmp/ccxKWXS1.s:1569   .debug_str:0000000000000100 .LASF42
     /tmp/ccxKWXS1.s:1739   .debug_str:00000000000005d1 .LASF43
     /tmp/ccxKWXS1.s:1609   .debug_str:000000000000020d .LASF44
     /tmp/ccxKWXS1.s:1733   .debug_str:00000000000005aa .LASF45
     /tmp/ccxKWXS1.s:1735   .debug_str:00000000000005b9 .LASF46
     /tmp/ccxKWXS1.s:1765   .debug_str:0000000000000688 .LASF47
     /tmp/ccxKWXS1.s:1579   .debug_str:0000000000000135 .LASF48
     /tmp/ccxKWXS1.s:1801   .debug_str:000000000000076d .LASF49
     /tmp/ccxKWXS1.s:1785   .debug_str:000000000000070f .LASF50
     /tmp/ccxKWXS1.s:1681   .debug_str:00000000000003e2 .LASF51
     /tmp/ccxKWXS1.s:1571   .debug_str:000000000000010c .LASF52
GAS LISTING /tmp/ccxKWXS1.s 			page 9


     /tmp/ccxKWXS1.s:1691   .debug_str:0000000000000425 .LASF53
     /tmp/ccxKWXS1.s:1575   .debug_str:0000000000000120 .LASF54
     /tmp/ccxKWXS1.s:1763   .debug_str:0000000000000675 .LASF55
     /tmp/ccxKWXS1.s:1641   .debug_str:00000000000002c1 .LASF56
     /tmp/ccxKWXS1.s:1547   .debug_str:000000000000007b .LASF57
     /tmp/ccxKWXS1.s:1709   .debug_str:0000000000000495 .LASF58
     /tmp/ccxKWXS1.s:1585   .debug_str:0000000000000162 .LASF59
     /tmp/ccxKWXS1.s:1715   .debug_str:00000000000004c0 .LASF60
     /tmp/ccxKWXS1.s:1725   .debug_str:0000000000000500 .LASF61
     /tmp/ccxKWXS1.s:1601   .debug_str:00000000000001d6 .LASF62
     /tmp/ccxKWXS1.s:1697   .debug_str:000000000000044c .LASF63
     /tmp/ccxKWXS1.s:1649   .debug_str:0000000000000333 .LASF64
     /tmp/ccxKWXS1.s:1773   .debug_str:00000000000006b7 .LASF65
     /tmp/ccxKWXS1.s:1553   .debug_str:00000000000000a5 .LASF66
     /tmp/ccxKWXS1.s:1647   .debug_str:0000000000000327 .LASF67
     /tmp/ccxKWXS1.s:1793   .debug_str:000000000000073b .LASF72
     /tmp/ccxKWXS1.s:1777   .debug_str:00000000000006d9 .LASF68
     /tmp/ccxKWXS1.s:1565   .debug_str:00000000000000ec .LASF69
     /tmp/ccxKWXS1.s:1805   .debug_str:000000000000078c .LASF70
     /tmp/ccxKWXS1.s:1737   .debug_str:00000000000005c8 .LASF71
     /tmp/ccxKWXS1.s:1781   .debug_str:00000000000006ef .LASF73
     /tmp/ccxKWXS1.s:1759   .debug_str:0000000000000656 .LASF74
     /tmp/ccxKWXS1.s:1667   .debug_str:0000000000000393 .LASF75
     /tmp/ccxKWXS1.s:1589   .debug_str:0000000000000181 .LASF76
     /tmp/ccxKWXS1.s:1645   .debug_str:000000000000031f .LASF77
     /tmp/ccxKWXS1.s:1577   .debug_str:000000000000012c .LASF78
     /tmp/ccxKWXS1.s:1719   .debug_str:00000000000004d9 .LASF124
     /tmp/ccxKWXS1.s:1539   .debug_str:000000000000004b .LASF79
     /tmp/ccxKWXS1.s:1541   .debug_str:0000000000000054 .LASF80
     /tmp/ccxKWXS1.s:1819   .debug_str:00000000000007fe .LASF81
     /tmp/ccxKWXS1.s:1767   .debug_str:0000000000000698 .LASF82
     /tmp/ccxKWXS1.s:1799   .debug_str:0000000000000763 .LASF83
     /tmp/ccxKWXS1.s:1651   .debug_str:000000000000033e .LASF84
     /tmp/ccxKWXS1.s:1653   .debug_str:0000000000000349 .LASF85
     /tmp/ccxKWXS1.s:1655   .debug_str:0000000000000354 .LASF86
     /tmp/ccxKWXS1.s:1595   .debug_str:00000000000001b6 .LASF87
     /tmp/ccxKWXS1.s:1659   .debug_str:000000000000036c .LASF88
     /tmp/ccxKWXS1.s:1661   .debug_str:0000000000000377 .LASF89
     /tmp/ccxKWXS1.s:1619   .debug_str:0000000000000241 .LASF90
     /tmp/ccxKWXS1.s:1637   .debug_str:00000000000002af .LASF91
     /tmp/ccxKWXS1.s:1639   .debug_str:00000000000002b8 .LASF92
     /tmp/ccxKWXS1.s:1729   .debug_str:0000000000000596 .LASF93
     /tmp/ccxKWXS1.s:1795   .debug_str:0000000000000745 .LASF94
     /tmp/ccxKWXS1.s:1751   .debug_str:000000000000062a .LASF95
     /tmp/ccxKWXS1.s:1753   .debug_str:0000000000000634 .LASF96
     /tmp/ccxKWXS1.s:1615   .debug_str:000000000000022f .LASF97
     /tmp/ccxKWXS1.s:1617   .debug_str:0000000000000238 .LASF98
     /tmp/ccxKWXS1.s:1699   .debug_str:000000000000045b .LASF99
     /tmp/ccxKWXS1.s:1701   .debug_str:0000000000000464 .LASF100
     /tmp/ccxKWXS1.s:1563   .debug_str:00000000000000e3 .LASF101
     /tmp/ccxKWXS1.s:1779   .debug_str:00000000000006e7 .LASF102
     /tmp/ccxKWXS1.s:1599   .debug_str:00000000000001ce .LASF103
     /tmp/ccxKWXS1.s:1663   .debug_str:0000000000000382 .LASF104
     /tmp/ccxKWXS1.s:1771   .debug_str:00000000000006b0 .LASF105
     /tmp/ccxKWXS1.s:1669   .debug_str:00000000000003a1 .LASF106
     /tmp/ccxKWXS1.s:1671   .debug_str:00000000000003ab .LASF107
     /tmp/ccxKWXS1.s:1673   .debug_str:00000000000003b5 .LASF108
GAS LISTING /tmp/ccxKWXS1.s 			page 10


     /tmp/ccxKWXS1.s:1675   .debug_str:00000000000003bf .LASF109
     /tmp/ccxKWXS1.s:1677   .debug_str:00000000000003c9 .LASF110
     /tmp/ccxKWXS1.s:1789   .debug_str:0000000000000729 .LASF111
     /tmp/ccxKWXS1.s:1791   .debug_str:0000000000000732 .LASF112
     /tmp/ccxKWXS1.s:1593   .debug_str:00000000000001ab .LASF113
     /tmp/ccxKWXS1.s:1635   .debug_str:00000000000002a6 .LASF114
     /tmp/ccxKWXS1.s:1629   .debug_str:0000000000000278 .LASF115
     /tmp/ccxKWXS1.s:1587   .debug_str:0000000000000175 .LASF116
     /tmp/ccxKWXS1.s:1549   .debug_str:000000000000008e .LASF117
     /tmp/ccxKWXS1.s:1689   .debug_str:000000000000041a .LASF118
     /tmp/ccxKWXS1.s:1555   .debug_str:00000000000000b2 .LASF119
     /tmp/ccxKWXS1.s:1783   .debug_str:00000000000006fa .LASF120
     /tmp/ccxKWXS1.s:1665   .debug_str:000000000000038a .LASF121
     /tmp/ccxKWXS1.s:1631   .debug_str:0000000000000283 .LASF122
     /tmp/ccxKWXS1.s:1717   .debug_str:00000000000004cd .LASF123
     /tmp/ccxKWXS1.s:1531   .debug_str:0000000000000000 .LASF125
     /tmp/ccxKWXS1.s:1621   .debug_str:000000000000024b .LASF126
     /tmp/ccxKWXS1.s:1597   .debug_str:00000000000001c1 .LASF127
     /tmp/ccxKWXS1.s:1821   .debug_str:0000000000000806 .LASF143
     /tmp/ccxKWXS1.s:1693   .debug_str:0000000000000431 .LASF144
     /tmp/ccxKWXS1.s:1545   .debug_str:000000000000006f .LASF128
     /tmp/ccxKWXS1.s:1607   .debug_str:0000000000000202 .LASF129
     /tmp/ccxKWXS1.s:1623   .debug_str:0000000000000251 .LASF145
     /tmp/ccxKWXS1.s:14     .text.spi1_slave_init:0000000000000000 .LFB2
     /tmp/ccxKWXS1.s:161    .text.spi1_slave_init:00000000000000dc .LFE2
     /tmp/ccxKWXS1.s:1484   .debug_loc:0000000000000000 .LLST0
     /tmp/ccxKWXS1.s:19     .text.spi1_slave_init:0000000000000000 .LBB10
     /tmp/ccxKWXS1.s:43     .text.spi1_slave_init:0000000000000010 .LVL0
     /tmp/ccxKWXS1.s:49     .text.spi1_slave_init:0000000000000020 .LVL1
     /tmp/ccxKWXS1.s:53     .text.spi1_slave_init:0000000000000020 .LBB16
     /tmp/ccxKWXS1.s:68     .text.spi1_slave_init:0000000000000044 .LBE16
     /tmp/ccxKWXS1.s:58     .text.spi1_slave_init:000000000000002c .LVL2
     /tmp/ccxKWXS1.s:62     .text.spi1_slave_init:0000000000000038 .LVL3
     /tmp/ccxKWXS1.s:66     .text.spi1_slave_init:0000000000000044 .LVL4
     /tmp/ccxKWXS1.s:70     .text.spi1_slave_init:0000000000000044 .LBB18
     /tmp/ccxKWXS1.s:95     .text.spi1_slave_init:000000000000007e .LBE18
     /tmp/ccxKWXS1.s:79     .text.spi1_slave_init:000000000000005a .LVL5
     /tmp/ccxKWXS1.s:86     .text.spi1_slave_init:000000000000006c .LVL6
     /tmp/ccxKWXS1.s:93     .text.spi1_slave_init:000000000000007e .LVL7
     /tmp/ccxKWXS1.s:97     .text.spi1_slave_init:000000000000007e .LBB20
     /tmp/ccxKWXS1.s:150    .text.spi1_slave_init:00000000000000d4 .LBE20
     /tmp/ccxKWXS1.s:98     .text.spi1_slave_init:000000000000007e .LBB21
     /tmp/ccxKWXS1.s:149    .text.spi1_slave_init:00000000000000d4 .LBE21
     /tmp/ccxKWXS1.s:104    .text.spi1_slave_init:000000000000008e .LVL8
     /tmp/ccxKWXS1.s:108    .text.spi1_slave_init:0000000000000098 .LVL9
     /tmp/ccxKWXS1.s:139    .text.spi1_slave_init:00000000000000ba .LVL10
     /tmp/ccxKWXS1.s:143    .text.spi1_slave_init:00000000000000c6 .LVL11
     /tmp/ccxKWXS1.s:148    .text.spi1_slave_init:00000000000000d4 .LVL12
     /tmp/ccxKWXS1.s:1535   .debug_str:0000000000000024 .LASF130
     /tmp/ccxKWXS1.s:1813   .debug_str:00000000000007c9 .LASF131
     /tmp/ccxKWXS1.s:1815   .debug_str:00000000000007da .LASF132
     /tmp/ccxKWXS1.s:1567   .debug_str:00000000000000f6 .LASF133
     /tmp/ccxKWXS1.s:1679   .debug_str:00000000000003d3 .LASF134
     /tmp/ccxKWXS1.s:1603   .debug_str:00000000000001e4 .LASF135
     /tmp/ccxKWXS1.s:1613   .debug_str:0000000000000226 .LASF136
     /tmp/ccxKWXS1.s:1713   .debug_str:00000000000004b5 .LASF137
     /tmp/ccxKWXS1.s:1583   .debug_str:0000000000000149 .LASF138
GAS LISTING /tmp/ccxKWXS1.s 			page 11


     /tmp/ccxKWXS1.s:26     .text.spi1_slave_init:0000000000000002 .LCFI0
     /tmp/ccxKWXS1.s:157    .text.spi1_slave_init:00000000000000da .LCFI1
     /tmp/ccxKWXS1.s:175    .debug_info:0000000000000000 .Ldebug_info0
     /tmp/ccxKWXS1.s:23     .text.spi1_slave_init:0000000000000000 .LBE10
     /tmp/ccxKWXS1.s:28     .text.spi1_slave_init:0000000000000002 .LBB14
     /tmp/ccxKWXS1.s:33     .text.spi1_slave_init:0000000000000004 .LBE14
     /tmp/ccxKWXS1.s:39     .text.spi1_slave_init:0000000000000008 .LBB15
     /tmp/ccxKWXS1.s:51     .text.spi1_slave_init:0000000000000020 .LBE15

UNDEFINED SYMBOLS
eclic_priority_group_set
eclic_irq_enable
rcu_periph_clock_enable
gpio_init
spi_i2s_deinit
spi_struct_para_init
spi_init
spi_enable
spi_i2s_interrupt_enable
