GAS LISTING /tmp/ccAGw4ye.s 			page 1


   1              		.file	"timer.c"
   2              		.option nopic
   3              		.attribute arch, "rv32i2p0_m2p0_a2p0_c2p0"
   4              		.attribute unaligned_access, 0
   5              		.attribute stack_align, 16
   6              		.text
   7              	.Ltext0:
   8              		.cfi_sections	.debug_frame
   9              		.section	.text.timer1_init,"ax",@progbits
  10              		.align	1
  11              		.globl	timer1_init
  13              	timer1_init:
  14              	.LFB2:
  15              		.file 1 "lib/TIMER/src/timer.c"
   1:lib/TIMER/src/timer.c **** #include "timer.h"
   2:lib/TIMER/src/timer.c **** 
   3:lib/TIMER/src/timer.c **** static void rcu_config(void);
   4:lib/TIMER/src/timer.c **** static void timer_config(void);
   5:lib/TIMER/src/timer.c **** static void eclic_config(void);
   6:lib/TIMER/src/timer.c **** 
   7:lib/TIMER/src/timer.c **** /*!
   8:lib/TIMER/src/timer.c ****     \brief      Initialize TIMER2 with TRGO interrupt
   9:lib/TIMER/src/timer.c ****     \param      none
  10:lib/TIMER/src/timer.c ****     \retval     none
  11:lib/TIMER/src/timer.c **** */
  12:lib/TIMER/src/timer.c **** void timer1_init(void){
  16              		.loc 1 12 23
  17              		.cfi_startproc
  13:lib/TIMER/src/timer.c ****     rcu_config();
  18              		.loc 1 13 5
  19              	.LBB8:
  20              	.LBB9:
  14:lib/TIMER/src/timer.c ****     timer_config();
  15:lib/TIMER/src/timer.c ****     eclic_config();
  16:lib/TIMER/src/timer.c **** }
  17:lib/TIMER/src/timer.c **** 
  18:lib/TIMER/src/timer.c **** /*!
  19:lib/TIMER/src/timer.c ****     \brief      configure peripheral clock
  20:lib/TIMER/src/timer.c ****     \param      none
  21:lib/TIMER/src/timer.c ****     \retval     none
  22:lib/TIMER/src/timer.c **** */
  23:lib/TIMER/src/timer.c **** static void rcu_config(void){
  24:lib/TIMER/src/timer.c ****     rcu_periph_clock_enable(RCU_TIMER1);
  21              		.loc 1 24 5
  22              	.LBE9:
  23              	.LBE8:
  12:lib/TIMER/src/timer.c ****     rcu_config();
  24              		.loc 1 12 23 is_stmt 0
  25 0000 0111     		addi	sp,sp,-32
  26              	.LCFI0:
  27              		.cfi_def_cfa_offset 32
  28              	.LBB12:
  29              	.LBB10:
  30              		.loc 1 24 5
  31 0002 13050070 		li	a0,1792
  32              	.LBE10:
  33              	.LBE12:
GAS LISTING /tmp/ccAGw4ye.s 			page 2


  12:lib/TIMER/src/timer.c ****     rcu_config();
  34              		.loc 1 12 23
  35 0006 06CE     		sw	ra,28(sp)
  36              		.cfi_offset 1, -4
  37              	.LBB13:
  38              	.LBB11:
  39              		.loc 1 24 5
  40 0008 97000000 		call	rcu_periph_clock_enable
  40      E7800000 
  41              	.LVL0:
  42              	.LBE11:
  43              	.LBE13:
  14:lib/TIMER/src/timer.c ****     timer_config();
  44              		.loc 1 14 5 is_stmt 1
  45              	.LBB14:
  46              	.LBB15:
  25:lib/TIMER/src/timer.c **** }
  26:lib/TIMER/src/timer.c **** 
  27:lib/TIMER/src/timer.c **** 
  28:lib/TIMER/src/timer.c **** /*!
  29:lib/TIMER/src/timer.c ****     \brief      configure TIMER2 peripheral
  30:lib/TIMER/src/timer.c ****     \param      none
  31:lib/TIMER/src/timer.c ****     \retval     none
  32:lib/TIMER/src/timer.c **** */
  33:lib/TIMER/src/timer.c **** static void timer_config(void){
  34:lib/TIMER/src/timer.c ****     // using a core clock of 96 Mhz, change prescaler if different 
  35:lib/TIMER/src/timer.c **** 
  36:lib/TIMER/src/timer.c ****     timer_parameter_struct timer_initpara;
  47              		.loc 1 36 5
  37:lib/TIMER/src/timer.c **** 
  38:lib/TIMER/src/timer.c ****     // deinit current TIMER1
  39:lib/TIMER/src/timer.c ****     timer_deinit(TIMER1);
  48              		.loc 1 39 5
  49 0010 37050040 		li	a0,1073741824
  50 0014 97000000 		call	timer_deinit
  50      E7800000 
  51              	.LVL1:
  40:lib/TIMER/src/timer.c ****     // inintialize TIMER2 with parameters struct 
  41:lib/TIMER/src/timer.c ****     timer_struct_para_init(&timer_initpara);
  52              		.loc 1 41 5
  53 001c 0A85     		mv	a0,sp
  54 001e 97000000 		call	timer_struct_para_init
  54      E7800000 
  55              	.LVL2:
  42:lib/TIMER/src/timer.c ****     // TIMER2 parameter struct configuation
  43:lib/TIMER/src/timer.c ****     timer_initpara.prescaler            = 950;   // each step 1us 
  56              		.loc 1 43 5
  44:lib/TIMER/src/timer.c ****     timer_initpara.alignedmode          = TIMER_COUNTER_EDGE;
  57              		.loc 1 44 5
  45:lib/TIMER/src/timer.c ****     timer_initpara.counterdirection     = TIMER_COUNTER_UP;
  58              		.loc 1 45 5
  43:lib/TIMER/src/timer.c ****     timer_initpara.alignedmode          = TIMER_COUNTER_EDGE;
  59              		.loc 1 43 41 is_stmt 0
  60 0026 9307603B 		li	a5,950
  61 002a 3EC0     		sw	a5,0(sp)
  46:lib/TIMER/src/timer.c ****     timer_initpara.period               = 9999;  // overflow after 1000us (autoreload every 10ms)
  62              		.loc 1 46 41
GAS LISTING /tmp/ccAGw4ye.s 			page 3


  63 002c 8967     		li	a5,8192
  64 002e 9387F770 		addi	a5,a5,1807
  47:lib/TIMER/src/timer.c ****     timer_initpara.clockdivision        = TIMER_CKDIV_DIV1;
  48:lib/TIMER/src/timer.c ****     timer_initpara.repetitioncounter    = 0;
  49:lib/TIMER/src/timer.c ****     timer_init(TIMER1, &timer_initpara);
  65              		.loc 1 49 5
  66 0032 8A85     		mv	a1,sp
  67 0034 37050040 		li	a0,1073741824
  46:lib/TIMER/src/timer.c ****     timer_initpara.period               = 9999;  // overflow after 1000us (autoreload every 10ms)
  68              		.loc 1 46 41
  69 0038 3EC4     		sw	a5,8(sp)
  45:lib/TIMER/src/timer.c ****     timer_initpara.period               = 9999;  // overflow after 1000us (autoreload every 10ms)
  70              		.loc 1 45 41
  71 003a 23120100 		sh	zero,4(sp)
  46:lib/TIMER/src/timer.c ****     timer_initpara.period               = 9999;  // overflow after 1000us (autoreload every 10ms)
  72              		.loc 1 46 5 is_stmt 1
  47:lib/TIMER/src/timer.c ****     timer_initpara.clockdivision        = TIMER_CKDIV_DIV1;
  73              		.loc 1 47 5
  47:lib/TIMER/src/timer.c ****     timer_initpara.clockdivision        = TIMER_CKDIV_DIV1;
  74              		.loc 1 47 41 is_stmt 0
  75 003e 23160100 		sh	zero,12(sp)
  48:lib/TIMER/src/timer.c ****     timer_init(TIMER1, &timer_initpara);
  76              		.loc 1 48 5 is_stmt 1
  48:lib/TIMER/src/timer.c ****     timer_init(TIMER1, &timer_initpara);
  77              		.loc 1 48 41 is_stmt 0
  78 0042 23070100 		sb	zero,14(sp)
  79              		.loc 1 49 5 is_stmt 1
  80 0046 97000000 		call	timer_init
  80      E7800000 
  81              	.LVL3:
  50:lib/TIMER/src/timer.c **** 
  51:lib/TIMER/src/timer.c ****     // enable interrupts for TIMER2 
  52:lib/TIMER/src/timer.c ****     timer_interrupt_enable(TIMER1, TIMER_INT_UP);
  82              		.loc 1 52 5
  83 004e 8545     		li	a1,1
  84 0050 37050040 		li	a0,1073741824
  85 0054 97000000 		call	timer_interrupt_enable
  85      E7800000 
  86              	.LVL4:
  53:lib/TIMER/src/timer.c ****     
  54:lib/TIMER/src/timer.c ****     timer_enable(TIMER1);
  87              		.loc 1 54 5
  88 005c 37050040 		li	a0,1073741824
  89 0060 97000000 		call	timer_enable
  89      E7800000 
  90              	.LVL5:
  91              	.LBE15:
  92              	.LBE14:
  15:lib/TIMER/src/timer.c **** }
  93              		.loc 1 15 5
  94              	.LBB16:
  95              	.LBB17:
  55:lib/TIMER/src/timer.c **** 
  56:lib/TIMER/src/timer.c **** }
  57:lib/TIMER/src/timer.c **** 
  58:lib/TIMER/src/timer.c **** /*!
  59:lib/TIMER/src/timer.c ****     \brief      configure ECLIC for TIMER2 
GAS LISTING /tmp/ccAGw4ye.s 			page 4


  60:lib/TIMER/src/timer.c ****     \param      none
  61:lib/TIMER/src/timer.c ****     \retval     none
  62:lib/TIMER/src/timer.c **** */
  63:lib/TIMER/src/timer.c **** static void eclic_config(void) {
  64:lib/TIMER/src/timer.c ****     // enable eclic for interrupt handler
  65:lib/TIMER/src/timer.c ****     //eclic_global_interrupt_enable();
  66:lib/TIMER/src/timer.c ****     eclic_priority_group_set(ECLIC_PRIGROUP_LEVEL3_PRIO1);
  96              		.loc 1 66 5
  97 0068 0D45     		li	a0,3
  98 006a 97000000 		call	eclic_priority_group_set
  98      E7800000 
  99              	.LVL6:
  67:lib/TIMER/src/timer.c ****     eclic_irq_enable(TIMER1_IRQn, 1, 0);
 100              		.loc 1 67 5
 101 0072 0146     		li	a2,0
 102 0074 8545     		li	a1,1
 103 0076 1305F002 		li	a0,47
 104 007a 97000000 		call	eclic_irq_enable
 104      E7800000 
 105              	.LVL7:
 106              	.LBE17:
 107              	.LBE16:
  16:lib/TIMER/src/timer.c **** 
 108              		.loc 1 16 1 is_stmt 0
 109 0082 F240     		lw	ra,28(sp)
 110              		.cfi_restore 1
 111 0084 0561     		addi	sp,sp,32
 112              	.LCFI1:
 113              		.cfi_def_cfa_offset 0
 114 0086 8280     		jr	ra
 115              		.cfi_endproc
 116              	.LFE2:
 118              		.text
 119              	.Letext0:
 120              		.file 2 "/home/karzan/Documents/toolchain-gd32v-v202-linux/compiler/riscv64-unknown-elf/include/ma
 121              		.file 3 "/home/karzan/Documents/toolchain-gd32v-v202-linux/compiler/riscv64-unknown-elf/include/sy
 122              		.file 4 "../../firmware/GD32VF103_standard_peripheral/Include/gd32vf103_timer.h"
 123              		.file 5 "../../firmware/GD32VF103_standard_peripheral/Include/gd32vf103_rcu.h"
 124              		.file 6 "../../firmware/GD32VF103_standard_peripheral/Include/gd32vf103_eclic.h"
 125              		.file 7 "../../firmware/GD32VF103_standard_peripheral/gd32vf103.h"
 126              		.file 8 "../../firmware/GD32VF103_standard_peripheral/system_gd32vf103.h"
GAS LISTING /tmp/ccAGw4ye.s 			page 5


DEFINED SYMBOLS
                            *ABS*:0000000000000000 timer.c
     /tmp/ccAGw4ye.s:13     .text.timer1_init:0000000000000000 timer1_init
     /tmp/ccAGw4ye.s:17     .text.timer1_init:0000000000000000 .L0 
     /tmp/ccAGw4ye.s:18     .text.timer1_init:0000000000000000 .L0 
     /tmp/ccAGw4ye.s:21     .text.timer1_init:0000000000000000 .L0 
     /tmp/ccAGw4ye.s:24     .text.timer1_init:0000000000000000 .L0 
     /tmp/ccAGw4ye.s:25     .text.timer1_init:0000000000000000 .L0 
     /tmp/ccAGw4ye.s:27     .text.timer1_init:0000000000000002 .L0 
     /tmp/ccAGw4ye.s:31     .text.timer1_init:0000000000000002 .L0 
     /tmp/ccAGw4ye.s:35     .text.timer1_init:0000000000000006 .L0 
     /tmp/ccAGw4ye.s:36     .text.timer1_init:0000000000000008 .L0 
     /tmp/ccAGw4ye.s:40     .text.timer1_init:0000000000000008 .L0 
     /tmp/ccAGw4ye.s:47     .text.timer1_init:0000000000000010 .L0 
     /tmp/ccAGw4ye.s:48     .text.timer1_init:0000000000000010 .L0 
     /tmp/ccAGw4ye.s:49     .text.timer1_init:0000000000000010 .L0 
     /tmp/ccAGw4ye.s:53     .text.timer1_init:000000000000001c .L0 
     /tmp/ccAGw4ye.s:57     .text.timer1_init:0000000000000026 .L0 
     /tmp/ccAGw4ye.s:58     .text.timer1_init:0000000000000026 .L0 
     /tmp/ccAGw4ye.s:59     .text.timer1_init:0000000000000026 .L0 
     /tmp/ccAGw4ye.s:60     .text.timer1_init:0000000000000026 .L0 
     /tmp/ccAGw4ye.s:63     .text.timer1_init:000000000000002c .L0 
     /tmp/ccAGw4ye.s:66     .text.timer1_init:0000000000000032 .L0 
     /tmp/ccAGw4ye.s:69     .text.timer1_init:0000000000000038 .L0 
     /tmp/ccAGw4ye.s:71     .text.timer1_init:000000000000003a .L0 
     /tmp/ccAGw4ye.s:73     .text.timer1_init:000000000000003e .L0 
     /tmp/ccAGw4ye.s:74     .text.timer1_init:000000000000003e .L0 
     /tmp/ccAGw4ye.s:75     .text.timer1_init:000000000000003e .L0 
     /tmp/ccAGw4ye.s:77     .text.timer1_init:0000000000000042 .L0 
     /tmp/ccAGw4ye.s:78     .text.timer1_init:0000000000000042 .L0 
     /tmp/ccAGw4ye.s:80     .text.timer1_init:0000000000000046 .L0 
     /tmp/ccAGw4ye.s:83     .text.timer1_init:000000000000004e .L0 
     /tmp/ccAGw4ye.s:88     .text.timer1_init:000000000000005c .L0 
     /tmp/ccAGw4ye.s:96     .text.timer1_init:0000000000000068 .L0 
     /tmp/ccAGw4ye.s:97     .text.timer1_init:0000000000000068 .L0 
     /tmp/ccAGw4ye.s:101    .text.timer1_init:0000000000000072 .L0 
     /tmp/ccAGw4ye.s:109    .text.timer1_init:0000000000000082 .L0 
     /tmp/ccAGw4ye.s:110    .text.timer1_init:0000000000000084 .L0 
     /tmp/ccAGw4ye.s:113    .text.timer1_init:0000000000000086 .L0 
     /tmp/ccAGw4ye.s:115    .text.timer1_init:0000000000000088 .L0 
     /tmp/ccAGw4ye.s:118    .text.timer1_init:0000000000000088 .L0 
                     .debug_frame:0000000000000000 .L0 
     /tmp/ccAGw4ye.s:877    .debug_abbrev:0000000000000000 .Ldebug_abbrev0
     /tmp/ccAGw4ye.s:1499   .debug_str:00000000000004dd .LASF136
     /tmp/ccAGw4ye.s:1509   .debug_str:0000000000000597 .LASF137
     /tmp/ccAGw4ye.s:1417   .debug_str:00000000000002ac .LASF138
     /tmp/ccAGw4ye.s:1297   .debug_ranges:0000000000000000 .Ldebug_ranges0
     /tmp/ccAGw4ye.s:1311   .debug_line:0000000000000000 .Ldebug_line0
     /tmp/ccAGw4ye.s:1493   .debug_str:00000000000004b8 .LASF139
     /tmp/ccAGw4ye.s:1495   .debug_str:00000000000004bd .LASF0
     /tmp/ccAGw4ye.s:1513   .debug_str:00000000000005b9 .LASF1
     /tmp/ccAGw4ye.s:1461   .debug_str:00000000000003ee .LASF2
     /tmp/ccAGw4ye.s:1521   .debug_str:00000000000005f2 .LASF3
     /tmp/ccAGw4ye.s:1473   .debug_str:0000000000000433 .LASF4
     /tmp/ccAGw4ye.s:1589   .debug_str:00000000000007a9 .LASF5
     /tmp/ccAGw4ye.s:1349   .debug_str:00000000000000f3 .LASF6
     /tmp/ccAGw4ye.s:1597   .debug_str:00000000000007f1 .LASF7
GAS LISTING /tmp/ccAGw4ye.s 			page 6


     /tmp/ccAGw4ye.s:1503   .debug_str:0000000000000570 .LASF8
     /tmp/ccAGw4ye.s:1379   .debug_str:00000000000001be .LASF9
     /tmp/ccAGw4ye.s:1459   .debug_str:00000000000003e1 .LASF10
     /tmp/ccAGw4ye.s:1339   .debug_str:00000000000000be .LASF11
     /tmp/ccAGw4ye.s:1529   .debug_str:0000000000000627 .LASF12
     /tmp/ccAGw4ye.s:1403   .debug_str:000000000000025a .LASF13
     /tmp/ccAGw4ye.s:1587   .debug_str:000000000000079e .LASF14
     /tmp/ccAGw4ye.s:1465   .debug_str:0000000000000407 .LASF15
     /tmp/ccAGw4ye.s:1579   .debug_str:0000000000000766 .LASF16
     /tmp/ccAGw4ye.s:1523   .debug_str:0000000000000600 .LASF17
     /tmp/ccAGw4ye.s:1335   .debug_str:000000000000009f .LASF18
     /tmp/ccAGw4ye.s:1519   .debug_str:00000000000005df .LASF19
     /tmp/ccAGw4ye.s:1365   .debug_str:000000000000015d .LASF20
     /tmp/ccAGw4ye.s:1573   .debug_str:000000000000073d .LASF21
     /tmp/ccAGw4ye.s:1455   .debug_str:00000000000003bf .LASF22
     /tmp/ccAGw4ye.s:1331   .debug_str:0000000000000086 .LASF23
     /tmp/ccAGw4ye.s:1387   .debug_str:00000000000001f5 .LASF24
     /tmp/ccAGw4ye.s:1407   .debug_str:0000000000000270 .LASF25
     /tmp/ccAGw4ye.s:1321   .debug_str:0000000000000046 .LASF26
     /tmp/ccAGw4ye.s:1545   .debug_str:0000000000000697 .LASF27
     /tmp/ccAGw4ye.s:1537   .debug_str:000000000000065e .LASF28
     /tmp/ccAGw4ye.s:1563   .debug_str:0000000000000706 .LASF29
     /tmp/ccAGw4ye.s:1475   .debug_str:0000000000000442 .LASF30
     /tmp/ccAGw4ye.s:1591   .debug_str:00000000000007b4 .LASF31
     /tmp/ccAGw4ye.s:1317   .debug_str:0000000000000019 .LASF32
     /tmp/ccAGw4ye.s:1337   .debug_str:00000000000000b2 .LASF33
     /tmp/ccAGw4ye.s:1517   .debug_str:00000000000005d3 .LASF34
     /tmp/ccAGw4ye.s:1399   .debug_str:0000000000000241 .LASF35
     /tmp/ccAGw4ye.s:1551   .debug_str:00000000000006c2 .LASF36
     /tmp/ccAGw4ye.s:1431   .debug_str:0000000000000337 .LASF37
     /tmp/ccAGw4ye.s:1485   .debug_str:0000000000000489 .LASF38
     /tmp/ccAGw4ye.s:1531   .debug_str:0000000000000632 .LASF39
     /tmp/ccAGw4ye.s:1479   .debug_str:000000000000045b .LASF40
     /tmp/ccAGw4ye.s:1359   .debug_str:0000000000000129 .LASF41
     /tmp/ccAGw4ye.s:1345   .debug_str:00000000000000dc .LASF42
     /tmp/ccAGw4ye.s:1511   .debug_str:00000000000005ad .LASF43
     /tmp/ccAGw4ye.s:1383   .debug_str:00000000000001d2 .LASF44
     /tmp/ccAGw4ye.s:1505   .debug_str:0000000000000579 .LASF45
     /tmp/ccAGw4ye.s:1507   .debug_str:0000000000000588 .LASF46
     /tmp/ccAGw4ye.s:1541   .debug_str:000000000000067e .LASF47
     /tmp/ccAGw4ye.s:1357   .debug_str:000000000000011f .LASF48
     /tmp/ccAGw4ye.s:1577   .debug_str:000000000000075a .LASF49
     /tmp/ccAGw4ye.s:1561   .debug_str:00000000000006fc .LASF50
     /tmp/ccAGw4ye.s:1453   .debug_str:00000000000003b4 .LASF51
     /tmp/ccAGw4ye.s:1347   .debug_str:00000000000000e8 .LASF52
     /tmp/ccAGw4ye.s:1463   .debug_str:00000000000003fb .LASF53
     /tmp/ccAGw4ye.s:1353   .debug_str:000000000000010a .LASF54
     /tmp/ccAGw4ye.s:1539   .debug_str:000000000000066b .LASF55
     /tmp/ccAGw4ye.s:1415   .debug_str:0000000000000299 .LASF56
     /tmp/ccAGw4ye.s:1329   .debug_str:0000000000000073 .LASF57
     /tmp/ccAGw4ye.s:1481   .debug_str:0000000000000465 .LASF58
     /tmp/ccAGw4ye.s:1361   .debug_str:0000000000000133 .LASF59
     /tmp/ccAGw4ye.s:1487   .debug_str:0000000000000496 .LASF60
     /tmp/ccAGw4ye.s:1497   .debug_str:00000000000004cf .LASF61
     /tmp/ccAGw4ye.s:1377   .debug_str:00000000000001b0 .LASF62
     /tmp/ccAGw4ye.s:1467   .debug_str:0000000000000412 .LASF63
     /tmp/ccAGw4ye.s:1423   .debug_str:000000000000030b .LASF64
GAS LISTING /tmp/ccAGw4ye.s 			page 7


     /tmp/ccAGw4ye.s:1549   .debug_str:00000000000006ad .LASF65
     /tmp/ccAGw4ye.s:1333   .debug_str:0000000000000092 .LASF66
     /tmp/ccAGw4ye.s:1421   .debug_str:00000000000002ff .LASF67
     /tmp/ccAGw4ye.s:1569   .debug_str:0000000000000728 .LASF70
     /tmp/ccAGw4ye.s:1553   .debug_str:00000000000006cf .LASF68
     /tmp/ccAGw4ye.s:1343   .debug_str:00000000000000d2 .LASF69
     /tmp/ccAGw4ye.s:1373   .debug_str:000000000000019d .LASF71
     /tmp/ccAGw4ye.s:1585   .debug_str:000000000000078b .LASF72
     /tmp/ccAGw4ye.s:1313   .debug_str:0000000000000000 .LASF73
     /tmp/ccAGw4ye.s:1557   .debug_str:00000000000006e5 .LASF74
     /tmp/ccAGw4ye.s:1535   .debug_str:000000000000064c .LASF75
     /tmp/ccAGw4ye.s:1439   .debug_str:0000000000000362 .LASF76
     /tmp/ccAGw4ye.s:1363   .debug_str:0000000000000146 .LASF77
     /tmp/ccAGw4ye.s:1419   .debug_str:00000000000002f7 .LASF78
     /tmp/ccAGw4ye.s:1491   .debug_str:00000000000004af .LASF79
     /tmp/ccAGw4ye.s:1355   .debug_str:0000000000000116 .LASF80
     /tmp/ccAGw4ye.s:1315   .debug_str:0000000000000009 .LASF140
     /tmp/ccAGw4ye.s:1323   .debug_str:0000000000000054 .LASF81
     /tmp/ccAGw4ye.s:1325   .debug_str:000000000000005d .LASF82
     /tmp/ccAGw4ye.s:1599   .debug_str:00000000000007fd .LASF83
     /tmp/ccAGw4ye.s:1543   .debug_str:000000000000068e .LASF84
     /tmp/ccAGw4ye.s:1575   .debug_str:0000000000000750 .LASF85
     /tmp/ccAGw4ye.s:1425   .debug_str:0000000000000316 .LASF86
     /tmp/ccAGw4ye.s:1427   .debug_str:0000000000000321 .LASF87
     /tmp/ccAGw4ye.s:1429   .debug_str:000000000000032c .LASF88
     /tmp/ccAGw4ye.s:1369   .debug_str:000000000000017b .LASF89
     /tmp/ccAGw4ye.s:1433   .debug_str:0000000000000344 .LASF90
     /tmp/ccAGw4ye.s:1435   .debug_str:000000000000034f .LASF91
     /tmp/ccAGw4ye.s:1395   .debug_str:0000000000000220 .LASF92
     /tmp/ccAGw4ye.s:1411   .debug_str:0000000000000287 .LASF93
     /tmp/ccAGw4ye.s:1413   .debug_str:0000000000000290 .LASF94
     /tmp/ccAGw4ye.s:1501   .debug_str:0000000000000565 .LASF95
     /tmp/ccAGw4ye.s:1571   .debug_str:0000000000000732 .LASF96
     /tmp/ccAGw4ye.s:1525   .debug_str:0000000000000613 .LASF97
     /tmp/ccAGw4ye.s:1527   .debug_str:000000000000061d .LASF98
     /tmp/ccAGw4ye.s:1391   .debug_str:000000000000020e .LASF99
     /tmp/ccAGw4ye.s:1393   .debug_str:0000000000000217 .LASF100
     /tmp/ccAGw4ye.s:1469   .debug_str:0000000000000421 .LASF101
     /tmp/ccAGw4ye.s:1471   .debug_str:000000000000042a .LASF102
     /tmp/ccAGw4ye.s:1341   .debug_str:00000000000000c9 .LASF103
     /tmp/ccAGw4ye.s:1555   .debug_str:00000000000006dd .LASF104
     /tmp/ccAGw4ye.s:1375   .debug_str:00000000000001a8 .LASF105
     /tmp/ccAGw4ye.s:1437   .debug_str:000000000000035a .LASF106
     /tmp/ccAGw4ye.s:1547   .debug_str:00000000000006a6 .LASF107
     /tmp/ccAGw4ye.s:1441   .debug_str:0000000000000370 .LASF108
     /tmp/ccAGw4ye.s:1443   .debug_str:000000000000037a .LASF109
     /tmp/ccAGw4ye.s:1445   .debug_str:0000000000000384 .LASF110
     /tmp/ccAGw4ye.s:1447   .debug_str:000000000000038e .LASF111
     /tmp/ccAGw4ye.s:1449   .debug_str:0000000000000398 .LASF112
     /tmp/ccAGw4ye.s:1565   .debug_str:0000000000000716 .LASF113
     /tmp/ccAGw4ye.s:1567   .debug_str:000000000000071f .LASF114
     /tmp/ccAGw4ye.s:1367   .debug_str:0000000000000170 .LASF115
     /tmp/ccAGw4ye.s:1409   .debug_str:000000000000027e .LASF116
     /tmp/ccAGw4ye.s:1405   .debug_str:0000000000000265 .LASF117
     /tmp/ccAGw4ye.s:1477   .debug_str:0000000000000451 .LASF118
     /tmp/ccAGw4ye.s:1389   .debug_str:0000000000000202 .LASF119
     /tmp/ccAGw4ye.s:1483   .debug_str:0000000000000478 .LASF120
GAS LISTING /tmp/ccAGw4ye.s 			page 8


     /tmp/ccAGw4ye.s:1581   .debug_str:0000000000000779 .LASF121
     /tmp/ccAGw4ye.s:1351   .debug_str:00000000000000fc .LASF122
     /tmp/ccAGw4ye.s:1451   .debug_str:00000000000003a2 .LASF123
     /tmp/ccAGw4ye.s:1397   .debug_str:000000000000022a .LASF124
     /tmp/ccAGw4ye.s:1489   .debug_str:00000000000004a3 .LASF125
     /tmp/ccAGw4ye.s:1533   .debug_str:000000000000063f .LASF126
     /tmp/ccAGw4ye.s:1327   .debug_str:0000000000000066 .LASF141
     /tmp/ccAGw4ye.s:1457   .debug_str:00000000000003d2 .LASF142
     /tmp/ccAGw4ye.s:1381   .debug_str:00000000000001c7 .LASF127
     /tmp/ccAGw4ye.s:1559   .debug_str:00000000000006f0 .LASF143
     /tmp/ccAGw4ye.s:14     .text.timer1_init:0000000000000000 .LFB2
     /tmp/ccAGw4ye.s:116    .text.timer1_init:0000000000000088 .LFE2
     /tmp/ccAGw4ye.s:1266   .debug_loc:0000000000000000 .LLST0
     /tmp/ccAGw4ye.s:19     .text.timer1_init:0000000000000000 .LBB8
     /tmp/ccAGw4ye.s:41     .text.timer1_init:0000000000000010 .LVL0
     /tmp/ccAGw4ye.s:45     .text.timer1_init:0000000000000010 .LBB14
     /tmp/ccAGw4ye.s:92     .text.timer1_init:0000000000000068 .LBE14
     /tmp/ccAGw4ye.s:46     .text.timer1_init:0000000000000010 .LBB15
     /tmp/ccAGw4ye.s:91     .text.timer1_init:0000000000000068 .LBE15
     /tmp/ccAGw4ye.s:51     .text.timer1_init:000000000000001c .LVL1
     /tmp/ccAGw4ye.s:55     .text.timer1_init:0000000000000026 .LVL2
     /tmp/ccAGw4ye.s:81     .text.timer1_init:000000000000004e .LVL3
     /tmp/ccAGw4ye.s:86     .text.timer1_init:000000000000005c .LVL4
     /tmp/ccAGw4ye.s:90     .text.timer1_init:0000000000000068 .LVL5
     /tmp/ccAGw4ye.s:94     .text.timer1_init:0000000000000068 .LBB16
     /tmp/ccAGw4ye.s:107    .text.timer1_init:0000000000000082 .LBE16
     /tmp/ccAGw4ye.s:99     .text.timer1_init:0000000000000072 .LVL6
     /tmp/ccAGw4ye.s:105    .text.timer1_init:0000000000000082 .LVL7
     /tmp/ccAGw4ye.s:1595   .debug_str:00000000000007d9 .LASF128
     /tmp/ccAGw4ye.s:1401   .debug_str:000000000000024d .LASF129
     /tmp/ccAGw4ye.s:1371   .debug_str:0000000000000186 .LASF130
     /tmp/ccAGw4ye.s:1583   .debug_str:0000000000000780 .LASF131
     /tmp/ccAGw4ye.s:1385   .debug_str:00000000000001de .LASF132
     /tmp/ccAGw4ye.s:1515   .debug_str:00000000000005c6 .LASF133
     /tmp/ccAGw4ye.s:1319   .debug_str:000000000000002d .LASF134
     /tmp/ccAGw4ye.s:1593   .debug_str:00000000000007c8 .LASF135
     /tmp/ccAGw4ye.s:26     .text.timer1_init:0000000000000002 .LCFI0
     /tmp/ccAGw4ye.s:112    .text.timer1_init:0000000000000086 .LCFI1
     /tmp/ccAGw4ye.s:128    .debug_info:0000000000000000 .Ldebug_info0
     /tmp/ccAGw4ye.s:23     .text.timer1_init:0000000000000000 .LBE8
     /tmp/ccAGw4ye.s:28     .text.timer1_init:0000000000000002 .LBB12
     /tmp/ccAGw4ye.s:33     .text.timer1_init:0000000000000006 .LBE12
     /tmp/ccAGw4ye.s:37     .text.timer1_init:0000000000000008 .LBB13
     /tmp/ccAGw4ye.s:43     .text.timer1_init:0000000000000010 .LBE13

UNDEFINED SYMBOLS
rcu_periph_clock_enable
timer_deinit
timer_struct_para_init
timer_init
timer_interrupt_enable
timer_enable
eclic_priority_group_set
eclic_irq_enable
